; Function Attrs: nounwind uwtable
define void @Bac_ManCollectGateNameOne(ptr noundef %0, i32 noundef %1, i64 noundef %2, ptr noundef readonly captures(none) %3) local_unnamed_addr #0 {
  %5 = tail call ptr @Mio_LibraryReadGateByTruth(ptr noundef %0, i64 noundef %2) #14
  %.not = icmp eq ptr %5, null
  br i1 %.not, label %11, label %6

6:                                                ; preds = %4
  %7 = tail call ptr @Mio_GateReadName(ptr noundef nonnull %5) #14
  %8 = getelementptr i8, ptr %3, i64 8
  %.val = load ptr, ptr %8, align 8
  %9 = sext i32 %1 to i64
  %10 = getelementptr inbounds ptr, ptr %.val, i64 %9
  store ptr %7, ptr %10, align 8
  br label %11

11:                                               ; preds = %6, %4
  ret void
}